target datalayout = "e-m:e-p270:32:32-p271:32:32-p272:64:64-i64:64-i128:128-f80:128-n8:16:32:64-S128"
target triple = "x86_64-pc-linux-gnu"

%struct.Vec_Int_t_ = type { i32, i32, ptr }

@.str = private unnamed_addr constant [23 x i8] c"%2d : %8d  (%6.2f %%)\0A\00", align 1
@.str.1 = private unnamed_addr constant [30 x i8] c"Extra space = %d (%6.2f %%)  \00", align 1

; Function Attrs: nounwind uwtable
define internal ptr @Vec_IntAlloc(i32 noundef %0) #0 {
  %2 = alloca i32, align 4
  %3 = alloca ptr, align 8
  store i32 %0, ptr %2, align 4
  %4 = call noalias ptr @malloc(i64 noundef 16) #12
  store ptr %4, ptr %3, align 8
  %5 = load i32, ptr %2, align 4
  %6 = icmp sgt i32 %5, 0
  br i1 %6, label %7, label %11

7:                                                ; preds = %1
  %8 = load i32, ptr %2, align 4
  %9 = icmp slt i32 %8, 16
  br i1 %9, label %10, label %11

10:                                               ; preds = %7
  store i32 16, ptr %2, align 4
  br label %11

11:                                               ; preds = %10, %7, %1
  %12 = load ptr, ptr %3, align 8
  %13 = getelementptr inbounds %struct.Vec_Int_t_, ptr %12, i32 0, i32 1
  store i32 0, ptr %13, align 4
  %14 = load i32, ptr %2, align 4
  %15 = load ptr, ptr %3, align 8
  %16 = getelementptr inbounds %struct.Vec_Int_t_, ptr %15, i32 0, i32 0
  store i32 %14, ptr %16, align 8
  %17 = load ptr, ptr %3, align 8
  %18 = getelementptr inbounds %struct.Vec_Int_t_, ptr %17, i32 0, i32 0
  %19 = load i32, ptr %18, align 8
  %20 = icmp ne i32 %19, 0
  br i1 %20, label %21, label %28

21:                                               ; preds = %11
  %22 = load ptr, ptr %3, align 8
  %23 = getelementptr inbounds %struct.Vec_Int_t_, ptr %22, i32 0, i32 0
  %24 = load i32, ptr %23, align 8
  %25 = sext i32 %24 to i64
  %26 = mul i64 4, %25
  %27 = call noalias ptr @malloc(i64 noundef %26) #12
  br label %29

28:                                               ; preds = %11
  br label %29

29:                                               ; preds = %28, %21
  %30 = phi ptr [ %27, %21 ], [ null, %28 ]
  %31 = load ptr, ptr %3, align 8
  %32 = getelementptr inbounds %struct.Vec_Int_t_, ptr %31, i32 0, i32 2
  store ptr %30, ptr %32, align 8
  %33 = load ptr, ptr %3, align 8
  ret ptr %33
}

; Function Attrs: nounwind uwtable
define internal void @Vec_IntFree(ptr noundef %0) #0 {
  %2 = alloca ptr, align 8
  store ptr %0, ptr %2, align 8
  %3 = load ptr, ptr %2, align 8
  %4 = getelementptr inbounds %struct.Vec_Int_t_, ptr %3, i32 0, i32 2
  %5 = load ptr, ptr %4, align 8
  %6 = icmp ne ptr %5, null
  br i1 %6, label %7, label %13

7:                                                ; preds = %1
  %8 = load ptr, ptr %2, align 8
  %9 = getelementptr inbounds %struct.Vec_Int_t_, ptr %8, i32 0, i32 2
  %10 = load ptr, ptr %9, align 8
  call void @free(ptr noundef %10) #10
  %11 = load ptr, ptr %2, align 8
  %12 = getelementptr inbounds %struct.Vec_Int_t_, ptr %11, i32 0, i32 2
  store ptr null, ptr %12, align 8
  br label %14

13:                                               ; preds = %1
  br label %14

14:                                               ; preds = %13, %7
  %15 = load ptr, ptr %2, align 8
  %16 = icmp ne ptr %15, null
  br i1 %16, label %17, label %19

17:                                               ; preds = %14
  %18 = load ptr, ptr %2, align 8
  call void @free(ptr noundef %18) #10
  store ptr null, ptr %2, align 8
  br label %20

19:                                               ; preds = %14
  br label %20

20:                                               ; preds = %19, %17
  ret void
}

; Function Attrs: nounwind uwtable
define internal i32 @Vec_IntAddToEntry(ptr noundef %0, i32 noundef %1, i32 noundef %2) #0 {
  %4 = alloca ptr, align 8
  %5 = alloca i32, align 4
  %6 = alloca i32, align 4
  store ptr %0, ptr %4, align 8
  store i32 %1, ptr %5, align 4
  store i32 %2, ptr %6, align 4
  %7 = load i32, ptr %6, align 4
  %8 = load ptr, ptr %4, align 8
  %9 = getelementptr inbounds %struct.Vec_Int_t_, ptr %8, i32 0, i32 2
  %10 = load ptr, ptr %9, align 8
  %11 = load i32, ptr %5, align 4
  %12 = sext i32 %11 to i64
  %13 = getelementptr inbounds i32, ptr %10, i64 %12
  %14 = load i32, ptr %13, align 4
  %15 = add nsw i32 %14, %7
  store i32 %15, ptr %13, align 4
  ret i32 %15
}

; Function Attrs: nounwind uwtable
define internal i32 @Vec_IntEntry(ptr noundef %0, i32 noundef %1) #0 {
  %3 = alloca ptr, align 8
  %4 = alloca i32, align 4
  store ptr %0, ptr %3, align 8
  store i32 %1, ptr %4, align 4
  %5 = load ptr, ptr %3, align 8
  %6 = getelementptr inbounds %struct.Vec_Int_t_, ptr %5, i32 0, i32 2
  %7 = load ptr, ptr %6, align 8
  %8 = load i32, ptr %4, align 4
  %9 = sext i32 %8 to i64
  %10 = getelementptr inbounds i32, ptr %7, i64 %9
  %11 = load i32, ptr %10, align 4
  ret i32 %11
}

; Function Attrs: nounwind uwtable
define internal i32 @Vec_IntSize(ptr noundef %0) #0 {
  %2 = alloca ptr, align 8
  store ptr %0, ptr %2, align 8
  %3 = load ptr, ptr %2, align 8
  %4 = getelementptr inbounds %struct.Vec_Int_t_, ptr %3, i32 0, i32 1
  %5 = load i32, ptr %4, align 4
  ret i32 %5
}

; Function Attrs: nounwind uwtable
define internal ptr @Vec_IntStart(i32 noundef %0) #0 {
  %2 = alloca i32, align 4
  %3 = alloca ptr, align 8
  store i32 %0, ptr %2, align 4
  %4 = load i32, ptr %2, align 4
  %5 = call ptr @Vec_IntAlloc(i32 noundef %4)
  store ptr %5, ptr %3, align 8
  %6 = load i32, ptr %2, align 4
  %7 = load ptr, ptr %3, align 8
  %8 = getelementptr inbounds %struct.Vec_Int_t_, ptr %7, i32 0, i32 1
  store i32 %6, ptr %8, align 4
  %9 = load ptr, ptr %3, align 8
  %10 = getelementptr inbounds %struct.Vec_Int_t_, ptr %9, i32 0, i32 2
  %11 = load ptr, ptr %10, align 8
  %12 = icmp ne ptr %11, null
  br i1 %12, label %13, label %20

13:                                               ; preds = %1
  %14 = load ptr, ptr %3, align 8
  %15 = getelementptr inbounds %struct.Vec_Int_t_, ptr %14, i32 0, i32 2
  %16 = load ptr, ptr %15, align 8
  %17 = load i32, ptr %2, align 4
  %18 = sext i32 %17 to i64
  %19 = mul i64 4, %18
  call void @llvm.memset.p0.i64(ptr align 4 %16, i8 0, i64 %19, i1 false)
  br label %20

20:                                               ; preds = %13, %1
  %21 = load ptr, ptr %3, align 8
  ret ptr %21
}

; Function Attrs: nounwind uwtable
define internal i32 @Vec_IntFindMax(ptr noundef %0) #0 {
  %2 = alloca i32, align 4
  %3 = alloca ptr, align 8
  %4 = alloca i32, align 4
  %5 = alloca i32, align 4
  store ptr %0, ptr %3, align 8
  %6 = load ptr, ptr %3, align 8
  %7 = getelementptr inbounds %struct.Vec_Int_t_, ptr %6, i32 0, i32 1
  %8 = load i32, ptr %7, align 4
  %9 = icmp eq i32 %8, 0
  br i1 %9, label %10, label %11

10:                                               ; preds = %1
  store i32 0, ptr %2, align 4
  br label %47

11:                                               ; preds = %1
  %12 = load ptr, ptr %3, align 8
  %13 = getelementptr inbounds %struct.Vec_Int_t_, ptr %12, i32 0, i32 2
  %14 = load ptr, ptr %13, align 8
  %15 = getelementptr inbounds i32, ptr %14, i64 0
  %16 = load i32, ptr %15, align 4
  store i32 %16, ptr %5, align 4
  store i32 1, ptr %4, align 4
  br label %17

17:                                               ; preds = %42, %11
  %18 = load i32, ptr %4, align 4
  %19 = load ptr, ptr %3, align 8
  %20 = getelementptr inbounds %struct.Vec_Int_t_, ptr %19, i32 0, i32 1
  %21 = load i32, ptr %20, align 4
  %22 = icmp slt i32 %18, %21
  br i1 %22, label %23, label %45

23:                                               ; preds = %17
  %24 = load i32, ptr %5, align 4
  %25 = load ptr, ptr %3, align 8
  %26 = getelementptr inbounds %struct.Vec_Int_t_, ptr %25, i32 0, i32 2
  %27 = load ptr, ptr %26, align 8
  %28 = load i32, ptr %4, align 4
  %29 = sext i32 %28 to i64
  %30 = getelementptr inbounds i32, ptr %27, i64 %29
  %31 = load i32, ptr %30, align 4
  %32 = icmp slt i32 %24, %31
  br i1 %32, label %33, label %41

33:                                               ; preds = %23
  %34 = load ptr, ptr %3, align 8
  %35 = getelementptr inbounds %struct.Vec_Int_t_, ptr %34, i32 0, i32 2
  %36 = load ptr, ptr %35, align 8
  %37 = load i32, ptr %4, align 4
  %38 = sext i32 %37 to i64
  %39 = getelementptr inbounds i32, ptr %36, i64 %38
  %40 = load i32, ptr %39, align 4
  store i32 %40, ptr %5, align 4
  br label %41

41:                                               ; preds = %33, %23
  br label %42

42:                                               ; preds = %41
  %43 = load i32, ptr %4, align 4
  %44 = add nsw i32 %43, 1
  store i32 %44, ptr %4, align 4
  br label %17, !llvm.loop !7

45:                                               ; preds = %17
  %46 = load i32, ptr %5, align 4
  store i32 %46, ptr %2, align 4
  br label %47

47:                                               ; preds = %45, %10
  %48 = load i32, ptr %2, align 4
  ret i32 %48
}

; Function Attrs: nounwind uwtable
define void @Unr_ManProfileRanks(ptr noundef %0) #0 {
  %2 = alloca ptr, align 8
  %3 = alloca i32, align 4
  %4 = alloca ptr, align 8
  %5 = alloca i32, align 4
  %6 = alloca i32, align 4
  %7 = alloca i32, align 4
  %8 = alloca i32, align 4
  store ptr %0, ptr %2, align 8
  %9 = load ptr, ptr %2, align 8
  %10 = call i32 @Vec_IntFindMax(ptr noundef %9)
  store i32 %10, ptr %3, align 4
  %11 = load i32, ptr %3, align 4
  %12 = add nsw i32 %11, 1
  %13 = call ptr @Vec_IntStart(i32 noundef %12)
  store ptr %13, ptr %4, align 8
  store i32 0, ptr %8, align 4
  store i32 0, ptr %5, align 4
  br label %14

14:                                               ; preds = %29, %1
  %15 = load i32, ptr %5, align 4
  %16 = load ptr, ptr %2, align 8
  %17 = call i32 @Vec_IntSize(ptr noundef %16)
  %18 = icmp slt i32 %15, %17
  br i1 %18, label %19, label %23

19:                                               ; preds = %14
  %20 = load ptr, ptr %2, align 8
  %21 = load i32, ptr %5, align 4
  %22 = call i32 @Vec_IntEntry(ptr noundef %20, i32 noundef %21)
  store i32 %22, ptr %6, align 4
  br label %23

23:                                               ; preds = %19, %14
  %24 = phi i1 [ false, %14 ], [ true, %19 ]
  br i1 %24, label %25, label %32

25:                                               ; preds = %23
  %26 = load ptr, ptr %4, align 8
  %27 = load i32, ptr %6, align 4
  %28 = call i32 @Vec_IntAddToEntry(ptr noundef %26, i32 noundef %27, i32 noundef 1)
  br label %29

29:                                               ; preds = %25
  %30 = load i32, ptr %5, align 4
  %31 = add nsw i32 %30, 1
  store i32 %31, ptr %5, align 4
  br label %14, !llvm.loop !4

32:                                               ; preds = %23
  store i32 0, ptr %5, align 4
  br label %33

33:                                               ; preds = %64, %32
  %34 = load i32, ptr %5, align 4
  %35 = load ptr, ptr %4, align 8
  %36 = call i32 @Vec_IntSize(ptr noundef %35)
  %37 = icmp slt i32 %34, %36
  br i1 %37, label %38, label %42

38:                                               ; preds = %33
  %39 = load ptr, ptr %4, align 8
  %40 = load i32, ptr %5, align 4
  %41 = call i32 @Vec_IntEntry(ptr noundef %39, i32 noundef %40)
  store i32 %41, ptr %7, align 4
  br label %42

42:                                               ; preds = %38, %33
  %43 = phi i1 [ false, %33 ], [ true, %38 ]
  br i1 %43, label %44, label %67

44:                                               ; preds = %42
  %45 = load i32, ptr %7, align 4
  %46 = icmp eq i32 %45, 0
  br i1 %46, label %47, label %48

47:                                               ; preds = %44
  br label %64

48:                                               ; preds = %44
  %49 = load i32, ptr %5, align 4
  %50 = load i32, ptr %7, align 4
  %51 = load i32, ptr %7, align 4
  %52 = sitofp i32 %51 to double
  %53 = fmul double 1.000000e+02, %52
  %54 = load ptr, ptr %2, align 8
  %55 = call i32 @Vec_IntSize(ptr noundef %54)
  %56 = sitofp i32 %55 to double
  %57 = fdiv double %53, %56
  %58 = call i32 (ptr, ...) @printf(ptr noundef @.str, i32 noundef %49, i32 noundef %50, double noundef %57)
  %59 = load i32, ptr %7, align 4
  %60 = load i32, ptr %5, align 4
  %61 = mul nsw i32 %59, %60
  %62 = load i32, ptr %8, align 4
  %63 = add nsw i32 %62, %61
  store i32 %63, ptr %8, align 4
  br label %64

64:                                               ; preds = %48, %47
  %65 = load i32, ptr %5, align 4
  %66 = add nsw i32 %65, 1
  store i32 %66, ptr %5, align 4
  br label %33, !llvm.loop !6

67:                                               ; preds = %42
  %68 = load i32, ptr %8, align 4
  %69 = load i32, ptr %8, align 4
  %70 = sitofp i32 %69 to double
  %71 = fmul double 1.000000e+02, %70
  %72 = load ptr, ptr %2, align 8
  %73 = call i32 @Vec_IntSize(ptr noundef %72)
  %74 = sitofp i32 %73 to double
  %75 = fdiv double %71, %74
  %76 = call i32 (ptr, ...) @printf(ptr noundef @.str.1, i32 noundef %68, double noundef %75)
  %77 = load ptr, ptr %4, align 8
  call void @Vec_IntFree(ptr noundef %77)
  ret void
}