; Function Attrs: nounwind uwtable
define void @Unr_ManProfileRanks(ptr noundef readonly captures(none) %0) local_unnamed_addr #0 {
  %2 = getelementptr inbounds nuw i8, ptr %0, i64 4
  %3 = load i32, ptr %2, align 4
  %4 = icmp eq i32 %3, 0
  br i1 %4, label %Vec_IntFindMax.exit.thread, label %6

Vec_IntFindMax.exit.thread:                       ; preds = %1
  %5 = tail call noalias dereferenceable_or_null(16) ptr @malloc(i64 noundef 16) #17
  br label %.thread

6:                                                ; preds = %1
  %7 = getelementptr inbounds nuw i8, ptr %0, i64 8
  %8 = load ptr, ptr %7, align 8
  %9 = load i32, ptr %8, align 4
  %10 = icmp sgt i32 %3, 1
  br i1 %10, label %.lr.ph.preheader.i, label %Vec_IntFindMax.exit

.lr.ph.preheader.i:                               ; preds = %6
  %wide.trip.count.i = zext nneg i32 %3 to i64
  br label %.lr.ph.i

.lr.ph.i:                                         ; preds = %.lr.ph.i, %.lr.ph.preheader.i
  %indvars.iv.i = phi i64 [ 1, %.lr.ph.preheader.i ], [ %indvars.iv.next.i, %.lr.ph.i ]
  %.015.i = phi i32 [ %9, %.lr.ph.preheader.i ], [ %spec.select.i, %.lr.ph.i ]
  %11 = getelementptr inbounds nuw i32, ptr %8, i64 %indvars.iv.i
  %12 = load i32, ptr %11, align 4
  %spec.select.i = tail call i32 @llvm.smax.i32(i32 %.015.i, i32 %12)
  %indvars.iv.next.i = add nuw nsw i64 %indvars.iv.i, 1
  %exitcond.not.i = icmp eq i64 %indvars.iv.next.i, %wide.trip.count.i
  br i1 %exitcond.not.i, label %Vec_IntFindMax.exit, label %.lr.ph.i, !llvm.loop !4

Vec_IntFindMax.exit:                              ; preds = %.lr.ph.i, %6
  %.012.i = phi i32 [ %9, %6 ], [ %spec.select.i, %.lr.ph.i ]
  %.012.i.fr = freeze i32 %.012.i
  %13 = add nsw i32 %.012.i.fr, 1
  %14 = tail call noalias dereferenceable_or_null(16) ptr @malloc(i64 noundef 16) #17
  %or.cond.i.i = icmp ult i32 %.012.i.fr, 15
  br i1 %or.cond.i.i, label %.thread, label %16

.thread:                                          ; preds = %Vec_IntFindMax.exit.thread, %Vec_IntFindMax.exit
  %.ph = phi ptr [ %5, %Vec_IntFindMax.exit.thread ], [ %14, %Vec_IntFindMax.exit ]
  %.ph40 = phi i32 [ 1, %Vec_IntFindMax.exit.thread ], [ %13, %Vec_IntFindMax.exit ]
  %15 = getelementptr i8, ptr %.ph, i64 4
  store i32 16, ptr %.ph, align 8
  br label %Vec_IntAlloc.exit.i

16:                                               ; preds = %Vec_IntFindMax.exit
  %17 = getelementptr i8, ptr %14, i64 4
  store i32 %13, ptr %14, align 8
  %.not.i.i = icmp eq i32 %13, 0
  br i1 %.not.i.i, label %Vec_IntAlloc.exit.thread.i, label %Vec_IntAlloc.exit.i

Vec_IntAlloc.exit.thread.i:                       ; preds = %16
  %18 = getelementptr inbounds nuw i8, ptr %14, i64 8
  store ptr null, ptr %18, align 8
  store i32 0, ptr %17, align 4
  br label %Vec_IntStart.exit

Vec_IntAlloc.exit.i:                              ; preds = %.thread, %16
  %19 = phi ptr [ %15, %.thread ], [ %17, %16 ]
  %20 = phi i32 [ 16, %.thread ], [ %13, %16 ]
  %21 = phi i32 [ %.ph40, %.thread ], [ %13, %16 ]
  %22 = phi ptr [ %.ph, %.thread ], [ %14, %16 ]
  %23 = sext i32 %20 to i64
  %24 = shl nsw i64 %23, 2
  %25 = tail call noalias ptr @malloc(i64 noundef %24) #17
  %26 = getelementptr inbounds nuw i8, ptr %22, i64 8
  store ptr %25, ptr %26, align 8
  store i32 %21, ptr %19, align 4
  %.not.i = icmp eq ptr %25, null
  br i1 %.not.i, label %Vec_IntStart.exit, label %27

27:                                               ; preds = %Vec_IntAlloc.exit.i
  %28 = sext i32 %21 to i64
  %29 = shl nsw i64 %28, 2
  tail call void @llvm.memset.p0.i64(ptr nonnull align 4 %25, i8 0, i64 %29, i1 false)
  br label %Vec_IntStart.exit

Vec_IntStart.exit:                                ; preds = %Vec_IntAlloc.exit.thread.i, %Vec_IntAlloc.exit.i, %27
  %.val304453 = phi i32 [ 0, %Vec_IntAlloc.exit.thread.i ], [ %21, %Vec_IntAlloc.exit.i ], [ %21, %27 ]
  %30 = phi ptr [ %17, %Vec_IntAlloc.exit.thread.i ], [ %19, %Vec_IntAlloc.exit.i ], [ %19, %27 ]
  %31 = phi ptr [ %14, %Vec_IntAlloc.exit.thread.i ], [ %22, %Vec_IntAlloc.exit.i ], [ %22, %27 ]
  %.val42 = load i32, ptr %2, align 4
  %32 = icmp sgt i32 %.val42, 0
  br i1 %32, label %.lr.ph, label %.critedge.preheader

.lr.ph:                                           ; preds = %Vec_IntStart.exit
  %33 = getelementptr i8, ptr %0, i64 8
  %34 = getelementptr i8, ptr %31, i64 8
  br label %37

.critedge.preheader.loopexit:                     ; preds = %37
  %.val3044.pre = load i32, ptr %30, align 4
  br label %.critedge.preheader

.critedge.preheader:                              ; preds = %.critedge.preheader.loopexit, %Vec_IntStart.exit
  %.val3257 = phi i32 [ %.val, %.critedge.preheader.loopexit ], [ %.val42, %Vec_IntStart.exit ]
  %.val3044 = phi i32 [ %.val3044.pre, %.critedge.preheader.loopexit ], [ %.val304453, %Vec_IntStart.exit ]
  %35 = icmp sgt i32 %.val3044, 0
  br i1 %35, label %.lr.ph47, label %.critedge2

.lr.ph47:                                         ; preds = %.critedge.preheader
  %36 = getelementptr i8, ptr %31, i64 8
  br label %46

37:                                               ; preds = %.lr.ph, %37
  %indvars.iv = phi i64 [ 0, %.lr.ph ], [ %indvars.iv.next, %37 ]
  %.val33 = load ptr, ptr %33, align 8
  %38 = getelementptr inbounds nuw i32, ptr %.val33, i64 %indvars.iv
  %39 = load i32, ptr %38, align 4
  %.val35 = load ptr, ptr %34, align 8
  %40 = sext i32 %39 to i64
  %41 = getelementptr inbounds i32, ptr %.val35, i64 %40
  %42 = load i32, ptr %41, align 4
  %43 = add nsw i32 %42, 1
  store i32 %43, ptr %41, align 4
  %indvars.iv.next = add nuw nsw i64 %indvars.iv, 1
  %.val = load i32, ptr %2, align 4
  %44 = sext i32 %.val to i64
  %45 = icmp slt i64 %indvars.iv.next, %44
  br i1 %45, label %37, label %.critedge.preheader.loopexit, !llvm.loop !6

46:                                               ; preds = %.lr.ph47, %.critedge
  %.val3054 = phi i32 [ %.val3044, %.lr.ph47 ], [ %.val30, %.critedge ]
  %indvars.iv49 = phi i64 [ 0, %.lr.ph47 ], [ %indvars.iv.next50, %.critedge ]
  %.046 = phi i32 [ 0, %.lr.ph47 ], [ %.1, %.critedge ]
  %.val34 = load ptr, ptr %36, align 8
  %47 = getelementptr inbounds nuw i32, ptr %.val34, i64 %indvars.iv49
  %48 = load i32, ptr %47, align 4
  %49 = icmp eq i32 %48, 0
  br i1 %49, label %.critedge, label %50

50:                                               ; preds = %46
  %51 = sitofp i32 %48 to double
  %52 = fmul double %51, 1.000000e+02
  %.val31 = load i32, ptr %2, align 4
  %53 = sitofp i32 %.val31 to double
  %54 = fdiv double %52, %53
  %55 = trunc nuw nsw i64 %indvars.iv49 to i32
  %56 = tail call i32 (ptr, ...) @printf(ptr noundef nonnull dereferenceable(1) @.str, i32 noundef %55, i32 noundef %48, double noundef %54)
  %57 = mul nsw i32 %48, %55
  %58 = add nsw i32 %57, %.046
  %.val30.pre = load i32, ptr %30, align 4
  br label %.critedge

.critedge:                                        ; preds = %46, %50
  %.val30 = phi i32 [ %.val3054, %46 ], [ %.val30.pre, %50 ]
  %.1 = phi i32 [ %.046, %46 ], [ %58, %50 ]
  %indvars.iv.next50 = add nuw nsw i64 %indvars.iv49, 1
  %59 = sext i32 %.val30 to i64
  %60 = icmp slt i64 %indvars.iv.next50, %59
  br i1 %60, label %46, label %.critedge2.loopexit, !llvm.loop !7

.critedge2.loopexit:                              ; preds = %.critedge
  %.val32.pre = load i32, ptr %2, align 4
  br label %.critedge2

.critedge2:                                       ; preds = %.critedge2.loopexit, %.critedge.preheader
  %.val32 = phi i32 [ %.val3257, %.critedge.preheader ], [ %.val32.pre, %.critedge2.loopexit ]
  %.0.lcssa = phi i32 [ 0, %.critedge.preheader ], [ %.1, %.critedge2.loopexit ]
  %61 = sitofp i32 %.0.lcssa to double
  %62 = fmul double %61, 1.000000e+02
  %63 = sitofp i32 %.val32 to double
  %64 = fdiv double %62, %63
  %65 = tail call i32 (ptr, ...) @printf(ptr noundef nonnull dereferenceable(1) @.str.1, i32 noundef %.0.lcssa, double noundef %64)
  %66 = getelementptr inbounds nuw i8, ptr %31, i64 8
  %67 = load ptr, ptr %66, align 8
  %.not.i36 = icmp eq ptr %67, null
  br i1 %.not.i36, label %Vec_IntFree.exit, label %68

68:                                               ; preds = %.critedge2
  tail call void @free(ptr noundef nonnull %67) #18
  br label %Vec_IntFree.exit

Vec_IntFree.exit:                                 ; preds = %.critedge2, %68
  tail call void @free(ptr noundef nonnull %31) #18
  ret void
}